target datalayout = "e-m:e-p270:32:32-p271:32:32-p272:64:64-i64:64-i128:128-f80:128-n8:16:32:64-S128"
target triple = "x86_64-pc-linux-gnu"

%struct.buf_chunk = type { ptr, i64, i64, i64, %union.anon }
%union.anon = type { ptr }
%struct.bufq = type { ptr, ptr, ptr, ptr, i64, i64, i64, i32 }

; Function Attrs: nounwind uwtable
define internal zeroext i1 @chunk_is_empty(ptr noundef %0) #0 {
  %2 = alloca ptr, align 8
  store ptr %0, ptr %2, align 8
  %3 = load ptr, ptr %2, align 8
  %4 = getelementptr inbounds %struct.buf_chunk, ptr %3, i32 0, i32 2
  %5 = load i64, ptr %4, align 8
  %6 = load ptr, ptr %2, align 8
  %7 = getelementptr inbounds %struct.buf_chunk, ptr %6, i32 0, i32 3
  %8 = load i64, ptr %7, align 8
  %9 = icmp uge i64 %5, %8
  ret i1 %9
}

; Function Attrs: nounwind uwtable
define dso_local zeroext i1 @Curl_bufq_is_empty(ptr noundef %0) #0 {
  %2 = alloca ptr, align 8
  store ptr %0, ptr %2, align 8
  %3 = load ptr, ptr %2, align 8
  %4 = getelementptr inbounds %struct.bufq, ptr %3, i32 0, i32 0
  %5 = load ptr, ptr %4, align 8
  %6 = icmp ne ptr %5, null
  br i1 %6, label %7, label %12

7:                                                ; preds = %1
  %8 = load ptr, ptr %2, align 8
  %9 = getelementptr inbounds %struct.bufq, ptr %8, i32 0, i32 0
  %10 = load ptr, ptr %9, align 8
  %11 = call zeroext i1 @chunk_is_empty(ptr noundef %10)
  br label %12

12:                                               ; preds = %7, %1
  %13 = phi i1 [ true, %1 ], [ %11, %7 ]
  ret i1 %13
}