; Function Attrs: mustprogress nofree norecurse nosync nounwind willreturn memory(read, inaccessiblemem: none) uwtable
define dso_local zeroext i1 @Curl_bufq_is_empty(ptr noundef readonly captures(none) %0) local_unnamed_addr #6 {
  %2 = load ptr, ptr %0, align 8
  %.not = icmp eq ptr %2, null
  br i1 %.not, label %7, label %3

3:                                                ; preds = %1
  %4 = getelementptr i8, ptr %2, i64 16
  %.val = load i64, ptr %4, align 8
  %5 = getelementptr i8, ptr %2, i64 24
  %.val2 = load i64, ptr %5, align 8
  %6 = icmp uge i64 %.val, %.val2
  br label %7

7:                                                ; preds = %3, %1
  %8 = phi i1 [ true, %1 ], [ %6, %3 ]
  ret i1 %8
}